target datalayout = "e-m:e-p270:32:32-p271:32:32-p272:64:64-i64:64-i128:128-f80:128-n8:16:32:64-S128"
target triple = "x86_64-pc-linux-gnu"

%class.ClassFieldMap = type { ptr }
%class.GrowableArrayView = type { %class.GrowableArrayBase, ptr }
%class.GrowableArrayBase = type { i32, i32 }
%class.ClassFieldDescriptor = type <{ i32, i32, i8, [3 x i8] }>
%class.CallbackWrapper = type { ptr, ptr, ptr, i64, i64, i64 }
%union.jvalue = type { i64 }

@g_assert_poison = external global ptr, align 8
@.str.19 = private unnamed_addr constant [40 x i8] c"src/hotspot/share/prims/jvmtiTagMap.cpp\00", align 1

; Function Attrs: mustprogress nounwind uwtable
define linkonce_odr hidden noundef nonnull align 8 dereferenceable(8) ptr @_ZN17GrowableArrayViewIP20ClassFieldDescriptorE2atEi(ptr noundef nonnull align 8 dereferenceable(16) %0, i32 noundef %1) #1 comdat align 2 {
  %3 = alloca ptr, align 8
  %4 = alloca i32, align 4
  store ptr %0, ptr %3, align 8
  store i32 %1, ptr %4, align 4
  %5 = load ptr, ptr %3, align 8
  %6 = getelementptr inbounds %class.GrowableArrayView, ptr %5, i32 0, i32 1
  %7 = load ptr, ptr %6, align 8
  %8 = load i32, ptr %4, align 4
  %9 = sext i32 %8 to i64
  %10 = getelementptr inbounds ptr, ptr %7, i64 %9
  ret ptr %10
}

; Function Attrs: mustprogress nounwind uwtable
define linkonce_odr hidden noundef i32 @_ZNK17GrowableArrayBase6lengthEv(ptr noundef nonnull align 4 dereferenceable(8) %0) #1 comdat align 2 {
  %2 = alloca ptr, align 8
  store ptr %0, ptr %2, align 8
  %3 = load ptr, ptr %2, align 8
  %4 = getelementptr inbounds %class.GrowableArrayBase, ptr %3, i32 0, i32 0
  %5 = load i32, ptr %4, align 4
  ret i32 %5
}

; Function Attrs: mustprogress nounwind uwtable
define linkonce_odr hidden noundef ptr @_ZN15CallbackWrapper9obj_tag_pEv(ptr noundef nonnull align 8 dereferenceable(48) %0) #1 comdat align 2 {
  %2 = alloca ptr, align 8
  store ptr %0, ptr %2, align 8
  %3 = load ptr, ptr %2, align 8
  %4 = getelementptr inbounds %class.CallbackWrapper, ptr %3, i32 0, i32 4
  ret ptr %4
}

; Function Attrs: mustprogress nounwind uwtable
define linkonce_odr hidden noundef i64 @_ZNK15CallbackWrapper9klass_tagEv(ptr noundef nonnull align 8 dereferenceable(48) %0) #1 comdat align 2 {
  %2 = alloca ptr, align 8
  store ptr %0, ptr %2, align 8
  %3 = load ptr, ptr %2, align 8
  %4 = getelementptr inbounds %class.CallbackWrapper, ptr %3, i32 0, i32 5
  %5 = load i64, ptr %4, align 8
  ret i64 %5
}

; Function Attrs: mustprogress nounwind uwtable
define linkonce_odr hidden noundef i32 @_ZNK20ClassFieldDescriptor11field_indexEv(ptr noundef nonnull align 4 dereferenceable(9) %0) #1 comdat align 2 {
  %2 = alloca ptr, align 8
  store ptr %0, ptr %2, align 8
  %3 = load ptr, ptr %2, align 8
  %4 = getelementptr inbounds %class.ClassFieldDescriptor, ptr %3, i32 0, i32 0
  %5 = load i32, ptr %4, align 4
  ret i32 %5
}

; Function Attrs: mustprogress nounwind uwtable
define internal void @_ZL14copy_to_jvalueP6jvaluePh18jvmtiPrimitiveType(ptr noundef %0, ptr noundef %1, i32 noundef %2) #1 {
  %4 = alloca ptr, align 8
  %5 = alloca ptr, align 8
  %6 = alloca i32, align 4
  store ptr %0, ptr %4, align 8
  store ptr %1, ptr %5, align 8
  store i32 %2, ptr %6, align 4
  %7 = load i32, ptr %6, align 4
  switch i32 %7, label %40 [
    i32 90, label %8
    i32 66, label %12
    i32 67, label %16
    i32 83, label %20
    i32 73, label %24
    i32 74, label %28
    i32 70, label %32
    i32 68, label %36
  ]

8:                                                ; preds = %3
  %9 = load ptr, ptr %5, align 8
  %10 = load i8, ptr %9, align 1
  %11 = load ptr, ptr %4, align 8
  store i8 %10, ptr %11, align 8
  br label %44

12:                                               ; preds = %3
  %13 = load ptr, ptr %5, align 8
  %14 = load i8, ptr %13, align 1
  %15 = load ptr, ptr %4, align 8
  store i8 %14, ptr %15, align 8
  br label %44

16:                                               ; preds = %3
  %17 = load ptr, ptr %5, align 8
  %18 = load i16, ptr %17, align 2
  %19 = load ptr, ptr %4, align 8
  store i16 %18, ptr %19, align 8
  br label %44

20:                                               ; preds = %3
  %21 = load ptr, ptr %5, align 8
  %22 = load i16, ptr %21, align 2
  %23 = load ptr, ptr %4, align 8
  store i16 %22, ptr %23, align 8
  br label %44

24:                                               ; preds = %3
  %25 = load ptr, ptr %5, align 8
  %26 = load i32, ptr %25, align 4
  %27 = load ptr, ptr %4, align 8
  store i32 %26, ptr %27, align 8
  br label %44

28:                                               ; preds = %3
  %29 = load ptr, ptr %5, align 8
  %30 = load i64, ptr %29, align 8
  %31 = load ptr, ptr %4, align 8
  store i64 %30, ptr %31, align 8
  br label %44

32:                                               ; preds = %3
  %33 = load ptr, ptr %5, align 8
  %34 = load float, ptr %33, align 4
  %35 = load ptr, ptr %4, align 8
  store float %34, ptr %35, align 8
  br label %44

36:                                               ; preds = %3
  %37 = load ptr, ptr %5, align 8
  %38 = load double, ptr %37, align 8
  %39 = load ptr, ptr %4, align 8
  store double %38, ptr %39, align 8
  br label %44

40:                                               ; preds = %3
  br label %41

41:                                               ; preds = %40
  %42 = load ptr, ptr @g_assert_poison, align 8
  store i8 88, ptr %42, align 1
  call void @_Z28report_should_not_reach_herePKci(ptr noundef @.str.19, i32 noundef 672) #10
  unreachable

43:                                               ; No predecessors!
  br label %44

44:                                               ; preds = %43, %36, %32, %28, %24, %20, %16, %12, %8
  ret void
}

; Function Attrs: mustprogress nounwind uwtable
define linkonce_odr hidden noundef ptr @_Z13cast_from_oopIPhET_P7oopDesc(ptr noundef %0) #1 comdat {
  %2 = alloca ptr, align 8
  store ptr %0, ptr %2, align 8
  %3 = load ptr, ptr %2, align 8
  ret ptr %3
}

; Function Attrs: mustprogress nounwind uwtable
define linkonce_odr hidden noundef i32 @_ZNK20ClassFieldDescriptor12field_offsetEv(ptr noundef nonnull align 4 dereferenceable(9) %0) #1 comdat align 2 {
  %2 = alloca ptr, align 8
  store ptr %0, ptr %2, align 8
  %3 = load ptr, ptr %2, align 8
  %4 = getelementptr inbounds %class.ClassFieldDescriptor, ptr %3, i32 0, i32 1
  %5 = load i32, ptr %4, align 4
  ret i32 %5
}

; Function Attrs: mustprogress nounwind uwtable
define internal noundef zeroext i1 @_ZL23is_primitive_field_typec(i8 noundef signext %0) #1 {
  %2 = alloca i8, align 1
  store i8 %0, ptr %2, align 1
  %3 = load i8, ptr %2, align 1
  %4 = sext i8 %3 to i32
  %5 = icmp ne i32 %4, 76
  br i1 %5, label %6, label %10

6:                                                ; preds = %1
  %7 = load i8, ptr %2, align 1
  %8 = sext i8 %7 to i32
  %9 = icmp ne i32 %8, 91
  br label %10

10:                                               ; preds = %6, %1
  %11 = phi i1 [ false, %1 ], [ %9, %6 ]
  ret i1 %11
}

; Function Attrs: mustprogress nounwind uwtable
define linkonce_odr hidden noundef signext i8 @_ZNK20ClassFieldDescriptor10field_typeEv(ptr noundef nonnull align 4 dereferenceable(9) %0) #1 comdat align 2 {
  %2 = alloca ptr, align 8
  store ptr %0, ptr %2, align 8
  %3 = load ptr, ptr %2, align 8
  %4 = getelementptr inbounds %class.ClassFieldDescriptor, ptr %3, i32 0, i32 2
  %5 = load i8, ptr %4, align 4
  ret i8 %5
}

; Function Attrs: mustprogress nounwind uwtable
define linkonce_odr hidden noundef ptr @_ZN13ClassFieldMap8field_atEi(ptr noundef nonnull align 8 dereferenceable(8) %0, i32 noundef %1) #1 comdat align 2 {
  %3 = alloca ptr, align 8
  %4 = alloca i32, align 4
  store ptr %0, ptr %3, align 8
  store i32 %1, ptr %4, align 4
  %5 = load ptr, ptr %3, align 8
  %6 = getelementptr inbounds %class.ClassFieldMap, ptr %5, i32 0, i32 0
  %7 = load ptr, ptr %6, align 8
  %8 = load i32, ptr %4, align 4
  %9 = call noundef nonnull align 8 dereferenceable(8) ptr @_ZN17GrowableArrayViewIP20ClassFieldDescriptorE2atEi(ptr noundef nonnull align 8 dereferenceable(16) %7, i32 noundef %8)
  %10 = load ptr, ptr %9, align 8
  ret ptr %10
}

; Function Attrs: mustprogress nounwind uwtable
define linkonce_odr hidden noundef i32 @_ZN13ClassFieldMap11field_countEv(ptr noundef nonnull align 8 dereferenceable(8) %0) #1 comdat align 2 {
  %2 = alloca ptr, align 8
  store ptr %0, ptr %2, align 8
  %3 = load ptr, ptr %2, align 8
  %4 = getelementptr inbounds %class.ClassFieldMap, ptr %3, i32 0, i32 0
  %5 = load ptr, ptr %4, align 8
  %6 = call noundef i32 @_ZNK17GrowableArrayBase6lengthEv(ptr noundef nonnull align 4 dereferenceable(8) %5)
  ret i32 %6
}

; Function Attrs: mustprogress nounwind uwtable
define internal noundef i32 @_ZL51invoke_primitive_field_callback_for_instance_fieldsP15CallbackWrapperP7oopDescPFi22jvmtiHeapReferenceKindPK22jvmtiHeapReferenceInfolPl6jvalue18jvmtiPrimitiveTypePvESA_(ptr noundef %0, ptr noundef %1, ptr noundef %2, ptr noundef %3) #1 {
  %5 = alloca i32, align 4
  %6 = alloca ptr, align 8
  %7 = alloca ptr, align 8
  %8 = alloca ptr, align 8
  %9 = alloca ptr, align 8
  %10 = alloca ptr, align 8
  %11 = alloca i32, align 4
  %12 = alloca ptr, align 8
  %13 = alloca i8, align 1
  %14 = alloca i32, align 4
  %15 = alloca i32, align 4
  %16 = alloca ptr, align 8
  %17 = alloca %union.jvalue, align 8
  %18 = alloca i32, align 4
  %19 = alloca %union.jvalue, align 8
  store ptr %0, ptr %6, align 8
  store ptr %1, ptr %7, align 8
  store ptr %2, ptr %8, align 8
  store ptr %3, ptr %9, align 8
  %20 = load ptr, ptr %7, align 8
  %21 = call noundef ptr @_ZN24JvmtiCachedClassFieldMap26get_map_of_instance_fieldsEP7oopDesc(ptr noundef %20)
  store ptr %21, ptr %10, align 8
  store i32 0, ptr %11, align 4
  br label %22

22:                                               ; preds = %66, %4
  %23 = load i32, ptr %11, align 4
  %24 = load ptr, ptr %10, align 8
  %25 = call noundef i32 @_ZN13ClassFieldMap11field_countEv(ptr noundef nonnull align 8 dereferenceable(8) %24)
  %26 = icmp slt i32 %23, %25
  br i1 %26, label %27, label %69

27:                                               ; preds = %22
  %28 = load ptr, ptr %10, align 8
  %29 = load i32, ptr %11, align 4
  %30 = call noundef ptr @_ZN13ClassFieldMap8field_atEi(ptr noundef nonnull align 8 dereferenceable(8) %28, i32 noundef %29)
  store ptr %30, ptr %12, align 8
  %31 = load ptr, ptr %12, align 8
  %32 = call noundef signext i8 @_ZNK20ClassFieldDescriptor10field_typeEv(ptr noundef nonnull align 4 dereferenceable(9) %31)
  store i8 %32, ptr %13, align 1
  %33 = load i8, ptr %13, align 1
  %34 = call noundef zeroext i1 @_ZL23is_primitive_field_typec(i8 noundef signext %33)
  br i1 %34, label %36, label %35

35:                                               ; preds = %27
  br label %66

36:                                               ; preds = %27
  %37 = load i8, ptr %13, align 1
  %38 = sext i8 %37 to i32
  store i32 %38, ptr %14, align 4
  %39 = load ptr, ptr %12, align 8
  %40 = call noundef i32 @_ZNK20ClassFieldDescriptor12field_offsetEv(ptr noundef nonnull align 4 dereferenceable(9) %39)
  store i32 %40, ptr %15, align 4
  %41 = load ptr, ptr %7, align 8
  %42 = call noundef ptr @_Z13cast_from_oopIPhET_P7oopDesc(ptr noundef %41)
  %43 = load i32, ptr %15, align 4
  %44 = sext i32 %43 to i64
  %45 = getelementptr inbounds i8, ptr %42, i64 %44
  store ptr %45, ptr %16, align 8
  %46 = load ptr, ptr %16, align 8
  %47 = load i32, ptr %14, align 4
  call void @_ZL14copy_to_jvalueP6jvaluePh18jvmtiPrimitiveType(ptr noundef %17, ptr noundef %46, i32 noundef %47)
  %48 = load ptr, ptr %12, align 8
  %49 = call noundef i32 @_ZNK20ClassFieldDescriptor11field_indexEv(ptr noundef nonnull align 4 dereferenceable(9) %48)
  store i32 %49, ptr @_ZZL51invoke_primitive_field_callback_for_instance_fieldsP15CallbackWrapperP7oopDescPFi22jvmtiHeapReferenceKindPK22jvmtiHeapReferenceInfolPl6jvalue18jvmtiPrimitiveTypePvESA_E14reference_info, align 8
  %50 = load ptr, ptr %8, align 8
  %51 = load ptr, ptr %6, align 8
  %52 = call noundef i64 @_ZNK15CallbackWrapper9klass_tagEv(ptr noundef nonnull align 8 dereferenceable(48) %51)
  %53 = load ptr, ptr %6, align 8
  %54 = call noundef ptr @_ZN15CallbackWrapper9obj_tag_pEv(ptr noundef nonnull align 8 dereferenceable(48) %53)
  call void @llvm.memcpy.p0.p0.i64(ptr align 8 %19, ptr align 8 %17, i64 8, i1 false)
  %55 = load i32, ptr %14, align 4
  %56 = load ptr, ptr %9, align 8
  %57 = getelementptr inbounds %union.jvalue, ptr %19, i32 0, i32 0
  %58 = load i64, ptr %57, align 8
  %59 = call noundef i32 %50(i32 noundef 2, ptr noundef @_ZZL51invoke_primitive_field_callback_for_instance_fieldsP15CallbackWrapperP7oopDescPFi22jvmtiHeapReferenceKindPK22jvmtiHeapReferenceInfolPl6jvalue18jvmtiPrimitiveTypePvESA_E14reference_info, i64 noundef %52, ptr noundef %54, i64 %58, i32 noundef %55, ptr noundef %56)
  store i32 %59, ptr %18, align 4
  %60 = load i32, ptr %18, align 4
  %61 = and i32 %60, 32768
  %62 = icmp ne i32 %61, 0
  br i1 %62, label %63, label %65

63:                                               ; preds = %36
  %64 = load i32, ptr %18, align 4
  store i32 %64, ptr %5, align 4
  br label %70

65:                                               ; preds = %36
  br label %66

66:                                               ; preds = %65, %35
  %67 = load i32, ptr %11, align 4
  %68 = add nsw i32 %67, 1
  store i32 %68, ptr %11, align 4
  br label %22, !llvm.loop !17

69:                                               ; preds = %22
  store i32 0, ptr %5, align 4
  br label %70

70:                                               ; preds = %69, %63
  %71 = load i32, ptr %5, align 4
  ret i32 %71
}