; Function Attrs: mustprogress nounwind uwtable
define internal fastcc noundef i32 @_ZL51invoke_primitive_field_callback_for_instance_fieldsP15CallbackWrapperP7oopDescPFi22jvmtiHeapReferenceKindPK22jvmtiHeapReferenceInfolPl6jvalue18jvmtiPrimitiveTypePvESA_(ptr noundef %0, ptr nocapture noundef readonly %1, ptr nocapture noundef readonly %2, ptr noundef %3) unnamed_addr #0 {
  %5 = tail call noundef ptr @_ZN24JvmtiCachedClassFieldMap26get_map_of_instance_fieldsEP7oopDesc(ptr noundef %1)
  %6 = load ptr, ptr %5, align 8
  %7 = load i32, ptr %6, align 4
  %8 = icmp sgt i32 %7, 0
  br i1 %8, label %.lr.ph, label %._crit_edge

.lr.ph:                                           ; preds = %4
  %9 = getelementptr inbounds i8, ptr %0, i64 40
  %10 = getelementptr inbounds i8, ptr %0, i64 32
  br label %11

11:                                               ; preds = %.lr.ph, %49
  %12 = phi i32 [ %7, %.lr.ph ], [ %50, %49 ]
  %13 = phi ptr [ %6, %.lr.ph ], [ %51, %49 ]
  %indvars.iv = phi i64 [ 0, %.lr.ph ], [ %indvars.iv.next, %49 ]
  %.sroa.0.sroa.9.054 = phi i32 [ undef, %.lr.ph ], [ %.sroa.0.sroa.9.2, %49 ]
  %.sroa.0.sroa.0.sroa.9.053 = phi i16 [ undef, %.lr.ph ], [ %.sroa.0.sroa.0.sroa.9.2, %49 ]
  %.sroa.0.sroa.0.sroa.0.sroa.9.052 = phi i8 [ undef, %.lr.ph ], [ %.sroa.0.sroa.0.sroa.0.sroa.9.2, %49 ]
  %14 = getelementptr inbounds i8, ptr %13, i64 8
  %15 = load ptr, ptr %14, align 8
  %16 = getelementptr inbounds ptr, ptr %15, i64 %indvars.iv
  %17 = load ptr, ptr %16, align 8
  %18 = getelementptr inbounds i8, ptr %17, i64 8
  %19 = load i8, ptr %18, align 4
  switch i8 %19, label %20 [
    i8 91, label %49
    i8 76, label %49
  ]

20:                                               ; preds = %11
  %21 = sext i8 %19 to i32
  %22 = getelementptr inbounds i8, ptr %17, i64 4
  %23 = load i32, ptr %22, align 4
  %24 = sext i32 %23 to i64
  %25 = getelementptr inbounds i8, ptr %1, i64 %24
  switch i8 %19, label %43 [
    i8 90, label %26
    i8 66, label %28
    i8 67, label %30
    i8 83, label %32
    i8 73, label %34
    i8 74, label %36
    i8 70, label %39
    i8 68, label %41
  ]

26:                                               ; preds = %20
  %27 = load i8, ptr %25, align 1
  br label %_ZL14copy_to_jvalueP6jvaluePh18jvmtiPrimitiveType.exit

28:                                               ; preds = %20
  %29 = load i8, ptr %25, align 1
  br label %_ZL14copy_to_jvalueP6jvaluePh18jvmtiPrimitiveType.exit

30:                                               ; preds = %20
  %31 = load i16, ptr %25, align 2
  %.sroa.0.sroa.0.sroa.0.sroa.0.0.extract.trunc32 = trunc i16 %31 to i8
  %.sroa.0.sroa.0.sroa.0.sroa.9.0.extract.shift37 = lshr i16 %31, 8
  %.sroa.0.sroa.0.sroa.0.sroa.9.0.extract.trunc38 = trunc nuw i16 %.sroa.0.sroa.0.sroa.0.sroa.9.0.extract.shift37 to i8
  br label %_ZL14copy_to_jvalueP6jvaluePh18jvmtiPrimitiveType.exit

32:                                               ; preds = %20
  %33 = load i16, ptr %25, align 2
  %.sroa.0.sroa.0.sroa.0.sroa.0.0.extract.trunc = trunc i16 %33 to i8
  %.sroa.0.sroa.0.sroa.0.sroa.9.0.extract.shift = lshr i16 %33, 8
  %.sroa.0.sroa.0.sroa.0.sroa.9.0.extract.trunc = trunc nuw i16 %.sroa.0.sroa.0.sroa.0.sroa.9.0.extract.shift to i8
  br label %_ZL14copy_to_jvalueP6jvaluePh18jvmtiPrimitiveType.exit

34:                                               ; preds = %20
  %35 = load i32, ptr %25, align 4
  %.sroa.0.sroa.0.sroa.0.sroa.0.0.extract.trunc35 = trunc i32 %35 to i8
  %.sroa.0.sroa.0.sroa.0.sroa.9.0.extract.shift4351 = lshr i32 %35, 8
  %.sroa.0.sroa.0.sroa.0.sroa.9.0.extract.trunc44 = trunc i32 %.sroa.0.sroa.0.sroa.0.sroa.9.0.extract.shift4351 to i8
  %.sroa.0.sroa.0.sroa.9.0.extract.shift28 = lshr i32 %35, 16
  %.sroa.0.sroa.0.sroa.9.0.extract.trunc29 = trunc nuw i32 %.sroa.0.sroa.0.sroa.9.0.extract.shift28 to i16
  br label %_ZL14copy_to_jvalueP6jvaluePh18jvmtiPrimitiveType.exit

36:                                               ; preds = %20
  %37 = load i32, ptr %25, align 8
  %.sroa_idx = getelementptr inbounds i8, ptr %25, i64 4
  %38 = load i32, ptr %.sroa_idx, align 4
  %.sroa.0.sroa.0.sroa.0.sroa.0.0.extract.trunc34 = trunc i32 %37 to i8
  %.sroa.0.sroa.0.sroa.0.sroa.9.0.extract.shift4150 = lshr i32 %37, 8
  %.sroa.0.sroa.0.sroa.0.sroa.9.0.extract.trunc42 = trunc i32 %.sroa.0.sroa.0.sroa.0.sroa.9.0.extract.shift4150 to i8
  %.sroa.0.sroa.0.sroa.9.0.extract.shift26 = lshr i32 %37, 16
  %.sroa.0.sroa.0.sroa.9.0.extract.trunc27 = trunc nuw i32 %.sroa.0.sroa.0.sroa.9.0.extract.shift26 to i16
  br label %_ZL14copy_to_jvalueP6jvaluePh18jvmtiPrimitiveType.exit

39:                                               ; preds = %20
  %40 = load i32, ptr %25, align 4
  %.sroa.0.sroa.0.sroa.0.sroa.0.0.extract.trunc33 = trunc i32 %40 to i8
  %.sroa.0.sroa.0.sroa.0.sroa.9.0.extract.shift3949 = lshr i32 %40, 8
  %.sroa.0.sroa.0.sroa.0.sroa.9.0.extract.trunc40 = trunc i32 %.sroa.0.sroa.0.sroa.0.sroa.9.0.extract.shift3949 to i8
  %.sroa.0.sroa.0.sroa.9.0.extract.shift = lshr i32 %40, 16
  %.sroa.0.sroa.0.sroa.9.0.extract.trunc = trunc nuw i32 %.sroa.0.sroa.0.sroa.9.0.extract.shift to i16
  br label %_ZL14copy_to_jvalueP6jvaluePh18jvmtiPrimitiveType.exit

41:                                               ; preds = %20
  %42 = load i64, ptr %25, align 8
  %.sroa.0.sroa.0.sroa.0.sroa.0.0.extract.trunc36 = trunc i64 %42 to i8
  %.sroa.0.sroa.0.sroa.0.sroa.9.0.extract.shift4547 = lshr i64 %42, 8
  %.sroa.0.sroa.0.sroa.0.sroa.9.0.extract.trunc46 = trunc i64 %.sroa.0.sroa.0.sroa.0.sroa.9.0.extract.shift4547 to i8
  %.sroa.0.sroa.0.sroa.9.0.extract.shift3048 = lshr i64 %42, 16
  %.sroa.0.sroa.0.sroa.9.0.extract.trunc31 = trunc i64 %.sroa.0.sroa.0.sroa.9.0.extract.shift3048 to i16
  %.sroa.0.sroa.9.0.extract.shift = lshr i64 %42, 32
  %.sroa.0.sroa.9.0.extract.trunc = trunc nuw i64 %.sroa.0.sroa.9.0.extract.shift to i32
  br label %_ZL14copy_to_jvalueP6jvaluePh18jvmtiPrimitiveType.exit

43:                                               ; preds = %20
  %44 = load ptr, ptr @g_assert_poison, align 8
  store i8 88, ptr %44, align 1
  tail call void @_Z28report_should_not_reach_herePKci(ptr noundef nonnull @.str.19, i32 noundef 672) #15
  unreachable

_ZL14copy_to_jvalueP6jvaluePh18jvmtiPrimitiveType.exit: ; preds = %26, %28, %30, %32, %34, %36, %39, %41
  %.sroa.0.sroa.0.sroa.0.sroa.9.1 = phi i8 [ %.sroa.0.sroa.0.sroa.0.sroa.9.0.extract.trunc46, %41 ], [ %.sroa.0.sroa.0.sroa.0.sroa.9.0.extract.trunc40, %39 ], [ %.sroa.0.sroa.0.sroa.0.sroa.9.0.extract.trunc42, %36 ], [ %.sroa.0.sroa.0.sroa.0.sroa.9.0.extract.trunc44, %34 ], [ %.sroa.0.sroa.0.sroa.0.sroa.9.0.extract.trunc, %32 ], [ %.sroa.0.sroa.0.sroa.0.sroa.9.0.extract.trunc38, %30 ], [ %.sroa.0.sroa.0.sroa.0.sroa.9.052, %28 ], [ %.sroa.0.sroa.0.sroa.0.sroa.9.052, %26 ]
  %.sroa.0.sroa.0.sroa.0.sroa.0.0 = phi i8 [ %.sroa.0.sroa.0.sroa.0.sroa.0.0.extract.trunc36, %41 ], [ %.sroa.0.sroa.0.sroa.0.sroa.0.0.extract.trunc33, %39 ], [ %.sroa.0.sroa.0.sroa.0.sroa.0.0.extract.trunc34, %36 ], [ %.sroa.0.sroa.0.sroa.0.sroa.0.0.extract.trunc35, %34 ], [ %.sroa.0.sroa.0.sroa.0.sroa.0.0.extract.trunc, %32 ], [ %.sroa.0.sroa.0.sroa.0.sroa.0.0.extract.trunc32, %30 ], [ %29, %28 ], [ %27, %26 ]
  %.sroa.0.sroa.0.sroa.9.1 = phi i16 [ %.sroa.0.sroa.0.sroa.9.0.extract.trunc31, %41 ], [ %.sroa.0.sroa.0.sroa.9.0.extract.trunc, %39 ], [ %.sroa.0.sroa.0.sroa.9.0.extract.trunc27, %36 ], [ %.sroa.0.sroa.0.sroa.9.0.extract.trunc29, %34 ], [ %.sroa.0.sroa.0.sroa.9.053, %32 ], [ %.sroa.0.sroa.0.sroa.9.053, %30 ], [ %.sroa.0.sroa.0.sroa.9.053, %28 ], [ %.sroa.0.sroa.0.sroa.9.053, %26 ]
  %.sroa.0.sroa.9.1 = phi i32 [ %.sroa.0.sroa.9.0.extract.trunc, %41 ], [ %.sroa.0.sroa.9.054, %39 ], [ %38, %36 ], [ %.sroa.0.sroa.9.054, %34 ], [ %.sroa.0.sroa.9.054, %32 ], [ %.sroa.0.sroa.9.054, %30 ], [ %.sroa.0.sroa.9.054, %28 ], [ %.sroa.0.sroa.9.054, %26 ]
  %45 = load i32, ptr %17, align 4
  store i32 %45, ptr @_ZZL51invoke_primitive_field_callback_for_instance_fieldsP15CallbackWrapperP7oopDescPFi22jvmtiHeapReferenceKindPK22jvmtiHeapReferenceInfolPl6jvalue18jvmtiPrimitiveTypePvESA_E14reference_info, align 8
  %46 = load i64, ptr %9, align 8
  %.sroa.0.sroa.0.sroa.0.sroa.9.0.insert.ext = zext i8 %.sroa.0.sroa.0.sroa.0.sroa.9.1 to i64
  %.sroa.0.sroa.0.sroa.0.sroa.9.0.insert.shift = shl nuw nsw i64 %.sroa.0.sroa.0.sroa.0.sroa.9.0.insert.ext, 8
  %.sroa.0.sroa.0.sroa.0.sroa.0.0.insert.ext = zext i8 %.sroa.0.sroa.0.sroa.0.sroa.0.0 to i64
  %.sroa.0.sroa.0.sroa.0.sroa.0.0.insert.insert = or disjoint i64 %.sroa.0.sroa.0.sroa.0.sroa.9.0.insert.shift, %.sroa.0.sroa.0.sroa.0.sroa.0.0.insert.ext
  %.sroa.0.sroa.0.sroa.9.0.insert.ext = zext i16 %.sroa.0.sroa.0.sroa.9.1 to i64
  %.sroa.0.sroa.0.sroa.9.0.insert.shift = shl nuw nsw i64 %.sroa.0.sroa.0.sroa.9.0.insert.ext, 16
  %.sroa.0.sroa.0.sroa.0.0.insert.insert = or disjoint i64 %.sroa.0.sroa.0.sroa.9.0.insert.shift, %.sroa.0.sroa.0.sroa.0.sroa.0.0.insert.insert
  %.sroa.0.sroa.9.0.insert.ext = zext i32 %.sroa.0.sroa.9.1 to i64
  %.sroa.0.sroa.9.0.insert.shift = shl nuw i64 %.sroa.0.sroa.9.0.insert.ext, 32
  %.sroa.0.sroa.0.0.insert.insert = or disjoint i64 %.sroa.0.sroa.9.0.insert.shift, %.sroa.0.sroa.0.sroa.0.0.insert.insert
  %47 = tail call noundef i32 %2(i32 noundef 2, ptr noundef nonnull @_ZZL51invoke_primitive_field_callback_for_instance_fieldsP15CallbackWrapperP7oopDescPFi22jvmtiHeapReferenceKindPK22jvmtiHeapReferenceInfolPl6jvalue18jvmtiPrimitiveTypePvESA_E14reference_info, i64 noundef %46, ptr noundef nonnull %10, i64 %.sroa.0.sroa.0.0.insert.insert, i32 noundef %21, ptr noundef %3) #14
  %48 = and i32 %47, 32768
  %.not = icmp eq i32 %48, 0
  br i1 %.not, label %_ZL14copy_to_jvalueP6jvaluePh18jvmtiPrimitiveType.exit._crit_edge, label %._crit_edge

_ZL14copy_to_jvalueP6jvaluePh18jvmtiPrimitiveType.exit._crit_edge: ; preds = %_ZL14copy_to_jvalueP6jvaluePh18jvmtiPrimitiveType.exit
  %.pre = load ptr, ptr %5, align 8
  %.pre57 = load i32, ptr %.pre, align 4
  br label %49

49:                                               ; preds = %_ZL14copy_to_jvalueP6jvaluePh18jvmtiPrimitiveType.exit._crit_edge, %11, %11
  %50 = phi i32 [ %.pre57, %_ZL14copy_to_jvalueP6jvaluePh18jvmtiPrimitiveType.exit._crit_edge ], [ %12, %11 ], [ %12, %11 ]
  %51 = phi ptr [ %.pre, %_ZL14copy_to_jvalueP6jvaluePh18jvmtiPrimitiveType.exit._crit_edge ], [ %13, %11 ], [ %13, %11 ]
  %.sroa.0.sroa.0.sroa.0.sroa.9.2 = phi i8 [ %.sroa.0.sroa.0.sroa.0.sroa.9.1, %_ZL14copy_to_jvalueP6jvaluePh18jvmtiPrimitiveType.exit._crit_edge ], [ %.sroa.0.sroa.0.sroa.0.sroa.9.052, %11 ], [ %.sroa.0.sroa.0.sroa.0.sroa.9.052, %11 ]
  %.sroa.0.sroa.0.sroa.9.2 = phi i16 [ %.sroa.0.sroa.0.sroa.9.1, %_ZL14copy_to_jvalueP6jvaluePh18jvmtiPrimitiveType.exit._crit_edge ], [ %.sroa.0.sroa.0.sroa.9.053, %11 ], [ %.sroa.0.sroa.0.sroa.9.053, %11 ]
  %.sroa.0.sroa.9.2 = phi i32 [ %.sroa.0.sroa.9.1, %_ZL14copy_to_jvalueP6jvaluePh18jvmtiPrimitiveType.exit._crit_edge ], [ %.sroa.0.sroa.9.054, %11 ], [ %.sroa.0.sroa.9.054, %11 ]
  %indvars.iv.next = add nuw nsw i64 %indvars.iv, 1
  %52 = sext i32 %50 to i64
  %53 = icmp slt i64 %indvars.iv.next, %52
  br i1 %53, label %11, label %._crit_edge, !llvm.loop !24

._crit_edge:                                      ; preds = %_ZL14copy_to_jvalueP6jvaluePh18jvmtiPrimitiveType.exit, %49, %4
  %.0 = phi i32 [ 0, %4 ], [ 0, %49 ], [ %47, %_ZL14copy_to_jvalueP6jvaluePh18jvmtiPrimitiveType.exit ]
  ret i32 %.0
}